---
triple:          'arm64-apple-darwin'
binary-path:     trace_test
relocations:
  - { offset: 0x8C6F, size: 0x8, addend: 0x0, symName: __ZStL8__ioinit, symObjAddr: 0x4EEA9, symBinAddr: 0x10000C000, symSize: 0x0 }
  - { offset: 0x948E, size: 0x8, addend: 0x0, symName: __GLOBAL__sub_I_trace_propagation.cpp, symObjAddr: 0x4094, symBinAddr: 0x100004384, symSize: 0x14 }
  - { offset: 0x94A6, size: 0x8, addend: 0x0, symName: __ZSt8_DestroyI12DebugAADNodeEvPT_, symObjAddr: 0x3B98, symBinAddr: 0x100004328, symSize: 0x20 }
  - { offset: 0x94F9, size: 0x8, addend: 0x0, symName: __ZN12DebugAADNodeD1Ev, symObjAddr: 0x3B68, symBinAddr: 0x1000042F8, symSize: 0x30 }
  - { offset: 0x951B, size: 0x8, addend: 0x0, symName: __ZNSt14_Sp_ebo_helperILi0ESaIvELb1EE6_S_getERS1_, symObjAddr: 0x3B54, symBinAddr: 0x1000042E4, symSize: 0x14 }
  - { offset: 0x956D, size: 0x8, addend: 0x0, symName: __ZNSt23_Sp_counted_ptr_inplaceI12DebugAADNodeSaIvELN9__gnu_cxx12_Lock_policyE2EE5_Impl8_M_allocEv, symObjAddr: 0x3B38, symBinAddr: 0x1000042C8, symSize: 0x1C }
  - { offset: 0x959B, size: 0x8, addend: 0x0, symName: __ZNSt23_Sp_counted_ptr_inplaceI12DebugAADNodeSaIvELN9__gnu_cxx12_Lock_policyE2EE14_M_get_deleterERKSt9type_info, symObjAddr: 0x3AC8, symBinAddr: 0x100004258, symSize: 0x70 }
  - { offset: 0x95D6, size: 0x8, addend: 0x0, symName: __ZNSt23_Sp_counted_ptr_inplaceI12DebugAADNodeSaIvELN9__gnu_cxx12_Lock_policyE2EE10_M_destroyEv, symObjAddr: 0x3A64, symBinAddr: 0x1000041F4, symSize: 0x64 }
  - { offset: 0x9690, size: 0x8, addend: 0x0, symName: __ZNSt23_Sp_counted_ptr_inplaceI12DebugAADNodeSaIvELN9__gnu_cxx12_Lock_policyE2EE10_M_disposeEv, symObjAddr: 0x3A18, symBinAddr: 0x1000041A8, symSize: 0x4C }
  - { offset: 0x9701, size: 0x8, addend: 0x0, symName: __ZNSt23_Sp_counted_ptr_inplaceI12DebugAADNodeSaIvELN9__gnu_cxx12_Lock_policyE2EED0Ev, symObjAddr: 0x39F0, symBinAddr: 0x100004180, symSize: 0x28 }
  - { offset: 0x972B, size: 0x8, addend: 0x0, symName: __ZNSt23_Sp_counted_ptr_inplaceI12DebugAADNodeSaIvELN9__gnu_cxx12_Lock_policyE2EED1Ev, symObjAddr: 0x39BC, symBinAddr: 0x10000414C, symSize: 0x34 }
  - { offset: 0x974D, size: 0x8, addend: 0x0, symName: __Z41__static_initialization_and_destruction_0v, symObjAddr: 0x4058, symBinAddr: 0x100004348, symSize: 0x3C }
  - { offset: 0x9769, size: 0x8, addend: 0x0, symName: __ZNSt4pairIP12DebugAADNodedEaSERKS2_, symObjAddr: 0x3984, symBinAddr: 0x100004114, symSize: 0x38 }
  - { offset: 0x983E, size: 0x8, addend: 0x0, symName: __ZN9__gnu_cxx16__aligned_bufferI12DebugAADNodeE7_M_addrEv, symObjAddr: 0x3970, symBinAddr: 0x100004100, symSize: 0x14 }
  - { offset: 0x986A, size: 0x8, addend: 0x0, symName: __ZSt10_ConstructI12DebugAADNodeJRdRKNSt7__cxx1112basic_stringIcSt11char_traitsIcESaIcEEEEEvPT_DpOT0_, symObjAddr: 0x38BC, symBinAddr: 0x10000404C, symSize: 0xB4 }
  - { offset: 0x9912, size: 0x8, addend: 0x0, symName: __ZNSt15__new_allocatorISt23_Sp_counted_ptr_inplaceI12DebugAADNodeSaIvELN9__gnu_cxx12_Lock_policyE2EEE10deallocateEPS5_m, symObjAddr: 0x3880, symBinAddr: 0x100004010, symSize: 0x3C }
  - { offset: 0x997A, size: 0x8, addend: 0x0, symName: __ZNSt15__new_allocatorISt23_Sp_counted_ptr_inplaceI12DebugAADNodeSaIvELN9__gnu_cxx12_Lock_policyE2EEE8allocateEmPKv, symObjAddr: 0x37F0, symBinAddr: 0x100003F80, symSize: 0x90 }
  - { offset: 0x9A18, size: 0x8, addend: 0x0, symName: __ZNSt14_Sp_ebo_helperILi0ESaIvELb1EEC2ERKS0_, symObjAddr: 0x37D8, symBinAddr: 0x100003F68, symSize: 0x18 }
  - { offset: 0x9A47, size: 0x8, addend: 0x0, symName: __ZNSt19_UninitDestroyGuardIPSt4pairIP12DebugAADNodedEvE7releaseEv, symObjAddr: 0x37BC, symBinAddr: 0x100003F4C, symSize: 0x1C }
  - { offset: 0x9A6D, size: 0x8, addend: 0x0, symName: __ZSt10_ConstructISt4pairIP12DebugAADNodedEJRKS3_EEvPT_DpOT0_, symObjAddr: 0x3754, symBinAddr: 0x100003EE4, symSize: 0x68 }
  - { offset: 0x9B1C, size: 0x8, addend: 0x0, symName: __ZNSt19_UninitDestroyGuardIPSt4pairIP12DebugAADNodedEvED1Ev, symObjAddr: 0x36FC, symBinAddr: 0x100003E8C, symSize: 0x58 }
  - { offset: 0x9B69, size: 0x8, addend: 0x0, symName: __ZNSt19_UninitDestroyGuardIPSt4pairIP12DebugAADNodedEvEC1ERS4_, symObjAddr: 0x36C8, symBinAddr: 0x100003E58, symSize: 0x34 }
  - { offset: 0x9B94, size: 0x8, addend: 0x0, symName: __ZSt14__copy_move_a2ILb0EPKSt4pairIP12DebugAADNodedES5_PS3_ET2_T0_T1_S7_, symObjAddr: 0x366C, symBinAddr: 0x100003DFC, symSize: 0x5C }
  - { offset: 0x9C30, size: 0x8, addend: 0x0, symName: __ZNSt15__new_allocatorISt4pairIP12DebugAADNodedEE8allocateEmPKv, symObjAddr: 0x35F0, symBinAddr: 0x100003D80, symSize: 0x7C }
  - { offset: 0x9CBC, size: 0x8, addend: 0x0, symName: __ZN9__gnu_cxx16__aligned_bufferI12DebugAADNodeE6_M_ptrEv, symObjAddr: 0x35D4, symBinAddr: 0x100003D64, symSize: 0x1C }
  - { offset: 0x9D57, size: 0x8, addend: 0x0, symName: __ZNSt23_Sp_counted_ptr_inplaceI12DebugAADNodeSaIvELN9__gnu_cxx12_Lock_policyE2EE5_ImplC1ES1_, symObjAddr: 0x35A8, symBinAddr: 0x100003D38, symSize: 0x2C }
  - { offset: 0x9E0A, size: 0x8, addend: 0x0, symName: __ZNSt15__allocated_ptrISaISt23_Sp_counted_ptr_inplaceI12DebugAADNodeSaIvELN9__gnu_cxx12_Lock_policyE2EEEEC1ERS6_PS5_, symObjAddr: 0x356C, symBinAddr: 0x100003CFC, symSize: 0x3C }
  - { offset: 0x9EA3, size: 0x8, addend: 0x0, symName: __ZNSt15__new_allocatorISt23_Sp_counted_ptr_inplaceI12DebugAADNodeSaIvELN9__gnu_cxx12_Lock_policyE2EEED2Ev, symObjAddr: 0x3558, symBinAddr: 0x100003CE8, symSize: 0x14 }
  - { offset: 0x9EF9, size: 0x8, addend: 0x0, symName: __ZNSt16_Sp_counted_baseILN9__gnu_cxx12_Lock_policyE2EEC2Ev, symObjAddr: 0x3518, symBinAddr: 0x100003CA8, symSize: 0x40 }
  - { offset: 0x9F53, size: 0x8, addend: 0x0, symName: __ZNSt15__new_allocatorIcE8allocateEmPKv, symObjAddr: 0x34B4, symBinAddr: 0x100003C44, symSize: 0x64 }
  - { offset: 0x9FC5, size: 0x8, addend: 0x0, symName: __ZSt16__do_uninit_copyIPKSt4pairIP12DebugAADNodedES5_PS3_ET1_T_T0_S7_, symObjAddr: 0x342C, symBinAddr: 0x100003BBC, symSize: 0x88 }
  - { offset: 0xA18F, size: 0x8, addend: 0x0, symName: __ZNSt23_Sp_counted_ptr_inplaceI12DebugAADNodeSaIvELN9__gnu_cxx12_Lock_policyE2EE6_M_ptrEv, symObjAddr: 0x340C, symBinAddr: 0x100003B9C, symSize: 0x20 }
  - { offset: 0xA1B9, size: 0x8, addend: 0x0, symName: __ZNSt15__allocated_ptrISaISt23_Sp_counted_ptr_inplaceI12DebugAADNodeSaIvELN9__gnu_cxx12_Lock_policyE2EEEEaSEDn, symObjAddr: 0x33EC, symBinAddr: 0x100003B7C, symSize: 0x20 }
  - { offset: 0xA239, size: 0x8, addend: 0x0, symName: __ZNSt23_Sp_counted_ptr_inplaceI12DebugAADNodeSaIvELN9__gnu_cxx12_Lock_policyE2EEC1IJRdRKNSt7__cxx1112basic_stringIcSt11char_traitsIcESaIcEEEEEES1_DpOT_, symObjAddr: 0x3324, symBinAddr: 0x100003AB4, symSize: 0xC8 }
  - { offset: 0xA365, size: 0x8, addend: 0x0, symName: __ZNKSt15__allocated_ptrISaISt23_Sp_counted_ptr_inplaceI12DebugAADNodeSaIvELN9__gnu_cxx12_Lock_policyE2EEEE3getEv, symObjAddr: 0x3304, symBinAddr: 0x100003A94, symSize: 0x20 }
  - { offset: 0xA3CC, size: 0x8, addend: 0x0, symName: __ZNSt15__allocated_ptrISaISt23_Sp_counted_ptr_inplaceI12DebugAADNodeSaIvELN9__gnu_cxx12_Lock_policyE2EEEED1Ev, symObjAddr: 0x32A8, symBinAddr: 0x100003A38, symSize: 0x5C }
  - { offset: 0xA423, size: 0x8, addend: 0x0, symName: __ZSt18__allocate_guardedISaISt23_Sp_counted_ptr_inplaceI12DebugAADNodeSaIvELN9__gnu_cxx12_Lock_policyE2EEEESt15__allocated_ptrIT_ERS8_, symObjAddr: 0x3250, symBinAddr: 0x1000039E0, symSize: 0x58 }
  - { offset: 0xA513, size: 0x8, addend: 0x0, symName: __ZNSt15__new_allocatorIcE10deallocateEPcm, symObjAddr: 0x3228, symBinAddr: 0x1000039B8, symSize: 0x28 }
  - { offset: 0xA577, size: 0x8, addend: 0x0, symName: __ZSt18uninitialized_copyIPKSt4pairIP12DebugAADNodedEPS3_ET0_T_S8_S7_, symObjAddr: 0x31FC, symBinAddr: 0x10000398C, symSize: 0x2C }
  - { offset: 0xA5D2, size: 0x8, addend: 0x0, symName: __ZSt9__advanceIPKSt4pairIP12DebugAADNodedElEvRT_T0_St26random_access_iterator_tag, symObjAddr: 0x31C4, symBinAddr: 0x100003954, symSize: 0x38 }
  - { offset: 0xA674, size: 0x8, addend: 0x0, symName: __ZSt12__miter_baseIPKSt4pairIP12DebugAADNodedEET_S6_, symObjAddr: 0x31B0, symBinAddr: 0x100003940, symSize: 0x14 }
  - { offset: 0xA6AB, size: 0x8, addend: 0x0, symName: __ZNSt6vectorISt4pairIP12DebugAADNodedESaIS3_EE12_Guard_alloc10_M_releaseEv, symObjAddr: 0x3188, symBinAddr: 0x100003918, symSize: 0x28 }
  - { offset: 0xA700, size: 0x8, addend: 0x0, symName: __ZNSt6vectorISt4pairIP12DebugAADNodedESaIS3_EE12_Guard_allocD1Ev, symObjAddr: 0x313C, symBinAddr: 0x1000038CC, symSize: 0x4C }
  - { offset: 0xA76A, size: 0x8, addend: 0x0, symName: __ZNSt6vectorISt4pairIP12DebugAADNodedESaIS3_EE12_Guard_allocC1EPS3_mRSt12_Vector_baseIS3_S4_E, symObjAddr: 0x30F8, symBinAddr: 0x100003888, symSize: 0x44 }
  - { offset: 0xA7AB, size: 0x8, addend: 0x0, symName: __ZNSt12_Vector_baseISt4pairIP12DebugAADNodedESaIS3_EE11_M_allocateEm, symObjAddr: 0x30A8, symBinAddr: 0x100003838, symSize: 0x50 }
  - { offset: 0xA832, size: 0x8, addend: 0x0, symName: __ZNSt6vectorISt4pairIP12DebugAADNodedESaIS3_EE11_S_max_sizeERKS4_, symObjAddr: 0x3054, symBinAddr: 0x1000037E4, symSize: 0x54 }
  - { offset: 0xA8F1, size: 0x8, addend: 0x0, symName: __ZNSt7__cxx1112basic_stringIcSt11char_traitsIcESaIcEE9_M_mutateEmmPKcm, symObjAddr: 0x2EFC, symBinAddr: 0x10000368C, symSize: 0x158 }
  - { offset: 0xA98F, size: 0x8, addend: 0x0, symName: __ZSt4swapIP12DebugAADNodeENSt9enable_ifIXsrSt6__and_IJSt6__not_ISt15__is_tuple_likeIT_EESt21is_move_constructibleIS6_ESt18is_move_assignableIS6_EEE5valueEvE4typeERS6_SG_, symObjAddr: 0x2EA8, symBinAddr: 0x100003638, symSize: 0x54 }
  - { offset: 0xAA4B, size: 0x8, addend: 0x0, symName: __ZNSt12__shared_ptrI12DebugAADNodeLN9__gnu_cxx12_Lock_policyE2EE31_M_enable_shared_from_this_withIS0_S0_EENSt9enable_ifIXntsrNS3_15__has_esft_baseIT0_vEE5valueEvE4typeEPT_, symObjAddr: 0x2E90, symBinAddr: 0x100003620, symSize: 0x18 }
  - { offset: 0xAB4B, size: 0x8, addend: 0x0, symName: __ZNSt14__shared_countILN9__gnu_cxx12_Lock_policyE2EEC1I12DebugAADNodeSaIvEJRdRKNSt7__cxx1112basic_stringIcSt11char_traitsIcESaIcEEEEEERPT_St20_Sp_alloc_shared_tagIT0_EDpOT1_, symObjAddr: 0x2D34, symBinAddr: 0x1000034C4, symSize: 0x15C }
  - { offset: 0xACED, size: 0x8, addend: 0x0, symName: __ZNSt15__new_allocatorISt4pairIP12DebugAADNodedEE10deallocateEPS3_m, symObjAddr: 0x2D04, symBinAddr: 0x100003494, symSize: 0x30 }
  - { offset: 0xAD98, size: 0x8, addend: 0x0, symName: __ZNSt19__ptr_traits_ptr_toIPKcS0_Lb0EE10pointer_toERS0_, symObjAddr: 0x2CDC, symBinAddr: 0x10000346C, symSize: 0x28 }
  - { offset: 0xAE07, size: 0x8, addend: 0x0, symName: __ZNSt7__cxx1112basic_stringIcSt11char_traitsIcESaIcEE11_S_allocateERS3_m, symObjAddr: 0x2C98, symBinAddr: 0x100003428, symSize: 0x44 }
  - { offset: 0xAEE7, size: 0x8, addend: 0x0, symName: __ZSt22__uninitialized_copy_aIPKSt4pairIP12DebugAADNodedES5_PS3_S3_ET1_T_T0_S7_RSaIT2_E, symObjAddr: 0x2C68, symBinAddr: 0x1000033F8, symSize: 0x30 }
  - { offset: 0xAFA1, size: 0x8, addend: 0x0, symName: __ZSt4copyIPKSt4pairIP12DebugAADNodedEPS3_ET0_T_S8_S7_, symObjAddr: 0x2BD0, symBinAddr: 0x100003360, symSize: 0x98 }
  - { offset: 0xB10A, size: 0x8, addend: 0x0, symName: __ZNSt6vectorISt4pairIP12DebugAADNodedESaIS3_EE15_M_erase_at_endEPS3_, symObjAddr: 0x2B48, symBinAddr: 0x1000032D8, symSize: 0x88 }
  - { offset: 0xB19F, size: 0x8, addend: 0x0, symName: __ZNSt6vectorISt4pairIP12DebugAADNodedESaIS3_EE20_M_allocate_and_copyIPKS3_EEPS3_mT_SA_, symObjAddr: 0x2AA4, symBinAddr: 0x100003234, symSize: 0xA4 }
  - { offset: 0xB212, size: 0x8, addend: 0x0, symName: __ZNSt6vectorISt4pairIP12DebugAADNodedESaIS3_EE17_S_check_init_lenEmRKS4_, symObjAddr: 0x2A20, symBinAddr: 0x1000031B0, symSize: 0x84 }
  - { offset: 0xB2C8, size: 0x8, addend: 0x0, symName: __ZNKSt6vectorISt4pairIP12DebugAADNodedESaIS3_EE8capacityEv, symObjAddr: 0x29E0, symBinAddr: 0x100003170, symSize: 0x40 }
  - { offset: 0xB34F, size: 0x8, addend: 0x0, symName: __ZNKSt16initializer_listISt4pairIP12DebugAADNodedEE4sizeEv, symObjAddr: 0x29C8, symBinAddr: 0x100003158, symSize: 0x18 }
  - { offset: 0xB37D, size: 0x8, addend: 0x0, symName: __ZNSt7__cxx1112basic_stringIcSt11char_traitsIcESaIcEE9_M_appendEPKcm, symObjAddr: 0x2900, symBinAddr: 0x100003090, symSize: 0xC8 }
  - { offset: 0xB3DA, size: 0x8, addend: 0x0, symName: __ZNKSt7__cxx1112basic_stringIcSt11char_traitsIcESaIcEE15_M_check_lengthEmmPKc, symObjAddr: 0x288C, symBinAddr: 0x10000301C, symSize: 0x74 }
  - { offset: 0xB437, size: 0x8, addend: 0x0, symName: __ZNSt7__cxx1112basic_stringIcSt11char_traitsIcESaIcEE6appendEPKcm, symObjAddr: 0x2848, symBinAddr: 0x100002FD8, symSize: 0x44 }
  - { offset: 0xB4AB, size: 0x8, addend: 0x0, symName: __ZNSt7__cxx1112basic_stringIcSt11char_traitsIcESaIcEEC1ERKS3_, symObjAddr: 0x27F0, symBinAddr: 0x100002F80, symSize: 0x58 }
  - { offset: 0xB4FE, size: 0x8, addend: 0x0, symName: __ZNSt12__shared_ptrI12DebugAADNodeLN9__gnu_cxx12_Lock_policyE2EE4swapERS3_, symObjAddr: 0x27AC, symBinAddr: 0x100002F3C, symSize: 0x44 }
  - { offset: 0xB5B3, size: 0x8, addend: 0x0, symName: __ZNSt12__shared_ptrI12DebugAADNodeLN9__gnu_cxx12_Lock_policyE2EEC2ISaIvEJRdRKNSt7__cxx1112basic_stringIcSt11char_traitsIcESaIcEEEEEESt20_Sp_alloc_shared_tagIT_EDpOT0_, symObjAddr: 0x2738, symBinAddr: 0x100002EC8, symSize: 0x74 }
  - { offset: 0xB672, size: 0x8, addend: 0x0, symName: __ZSt8_DestroyIPSt4pairIP12DebugAADNodedEEvT_S5_, symObjAddr: 0x2720, symBinAddr: 0x100002EB0, symSize: 0x18 }
  - { offset: 0xB700, size: 0x8, addend: 0x0, symName: __ZNSt14__shared_countILN9__gnu_cxx12_Lock_policyE2EE7_M_swapERS2_, symObjAddr: 0x26E0, symBinAddr: 0x100002E70, symSize: 0x40 }
  - { offset: 0xB766, size: 0x8, addend: 0x0, symName: __ZNSt14__shared_countILN9__gnu_cxx12_Lock_policyE2EEC1Ev, symObjAddr: 0x26C4, symBinAddr: 0x100002E54, symSize: 0x1C }
  - { offset: 0xB788, size: 0x8, addend: 0x0, symName: __ZNSt7__cxx1112basic_stringIcSt11char_traitsIcESaIcEE13_S_copy_charsIPKcEEvPcT_S9_, symObjAddr: 0x267C, symBinAddr: 0x100002E0C, symSize: 0x48 }
  - { offset: 0xB805, size: 0x8, addend: 0x0, symName: __ZNKSt7__cxx1112basic_stringIcSt11char_traitsIcESaIcEE8max_sizeEv, symObjAddr: 0x2620, symBinAddr: 0x100002DB0, symSize: 0x5C }
  - { offset: 0xB8E7, size: 0x8, addend: 0x0, symName: __ZNKSt7__cxx1112basic_stringIcSt11char_traitsIcESaIcEE13_M_local_dataEv, symObjAddr: 0x2600, symBinAddr: 0x100002D90, symSize: 0x20 }
  - { offset: 0xB90D, size: 0x8, addend: 0x0, symName: __ZNSt7__cxx1112basic_stringIcSt11char_traitsIcESaIcEE7_S_copyEPcPKcm, symObjAddr: 0x25B4, symBinAddr: 0x100002D44, symSize: 0x4C }
  - { offset: 0xB960, size: 0x8, addend: 0x0, symName: __ZNSt7__cxx1112basic_stringIcSt11char_traitsIcESaIcEE9_M_createERmm, symObjAddr: 0x24C0, symBinAddr: 0x100002C50, symSize: 0xF4 }
  - { offset: 0xB9AA, size: 0x8, addend: 0x0, symName: __ZNKSt7__cxx1112basic_stringIcSt11char_traitsIcESaIcEE8capacityEv, symObjAddr: 0x243C, symBinAddr: 0x100002BCC, symSize: 0x84 }
  - { offset: 0xB9E5, size: 0x8, addend: 0x0, symName: __ZNSt7__cxx1112basic_stringIcSt11char_traitsIcESaIcEE10_M_destroyEm, symObjAddr: 0x23D8, symBinAddr: 0x100002B68, symSize: 0x64 }
  - { offset: 0xBA75, size: 0x8, addend: 0x0, symName: __ZNSt19__ptr_traits_ptr_toIPccLb0EE10pointer_toERc, symObjAddr: 0x23B0, symBinAddr: 0x100002B40, symSize: 0x28 }
  - { offset: 0xBB10, size: 0x8, addend: 0x0, symName: __ZNSt12__shared_ptrI12DebugAADNodeLN9__gnu_cxx12_Lock_policyE2EEC1EOS3_, symObjAddr: 0x2354, symBinAddr: 0x100002AE4, symSize: 0x5C }
  - { offset: 0xBB3F, size: 0x8, addend: 0x0, symName: __ZNSt6vectorISt4pairIP12DebugAADNodedESaIS3_EE13_M_assign_auxIPKS3_EEvT_S9_St20forward_iterator_tag, symObjAddr: 0x2108, symBinAddr: 0x100002898, symSize: 0x24C }
  - { offset: 0xBD5D, size: 0x8, addend: 0x0, symName: __ZNKSt16initializer_listISt4pairIP12DebugAADNodedEE3endEv, symObjAddr: 0x20D0, symBinAddr: 0x100002860, symSize: 0x38 }
  - { offset: 0xBD87, size: 0x8, addend: 0x0, symName: __ZNKSt16initializer_listISt4pairIP12DebugAADNodedEE5beginEv, symObjAddr: 0x20B8, symBinAddr: 0x100002848, symSize: 0x18 }
  - { offset: 0xBDDB, size: 0x8, addend: 0x0, symName: __ZNSt7__cxx1112basic_stringIcSt11char_traitsIcESaIcEE6appendERKS4_, symObjAddr: 0x2074, symBinAddr: 0x100002804, symSize: 0x44 }
  - { offset: 0xBE16, size: 0x8, addend: 0x0, symName: __ZNSt7__cxx1112basic_stringIcSt11char_traitsIcESaIcEE6appendEPKc, symObjAddr: 0x2028, symBinAddr: 0x1000027B8, symSize: 0x4C }
  - { offset: 0xBE64, size: 0x8, addend: 0x0, symName: __ZSt12__str_concatINSt7__cxx1112basic_stringIcSt11char_traitsIcESaIcEEEET_PKNS6_10value_typeENS6_9size_typeES9_SA_RKNS6_14allocator_typeE, symObjAddr: 0x1F48, symBinAddr: 0x1000026D8, symSize: 0xE0 }
  - { offset: 0xBFB6, size: 0x8, addend: 0x0, symName: __ZNKSt7__cxx1112basic_stringIcSt11char_traitsIcESaIcEE13get_allocatorEv, symObjAddr: 0x1EF8, symBinAddr: 0x100002688, symSize: 0x50 }
  - { offset: 0xC039, size: 0x8, addend: 0x0, symName: __ZNKSt19__shared_ptr_accessI12DebugAADNodeLN9__gnu_cxx12_Lock_policyE2ELb0ELb0EE6_M_getEv, symObjAddr: 0x1EDC, symBinAddr: 0x10000266C, symSize: 0x1C }
  - { offset: 0xC063, size: 0x8, addend: 0x0, symName: __ZNSt12__shared_ptrI12DebugAADNodeLN9__gnu_cxx12_Lock_policyE2EEaSEOS3_, symObjAddr: 0x1E98, symBinAddr: 0x100002628, symSize: 0x44 }
  - { offset: 0xC13C, size: 0x8, addend: 0x0, symName: __ZNSt10shared_ptrI12DebugAADNodeEC1ISaIvEJRdRKNSt7__cxx1112basic_stringIcSt11char_traitsIcESaIcEEEEEESt20_Sp_alloc_shared_tagIT_EDpOT0_, symObjAddr: 0x1E48, symBinAddr: 0x1000025D8, symSize: 0x50 }
  - { offset: 0xC227, size: 0x8, addend: 0x0, symName: __ZNSt12__shared_ptrI12DebugAADNodeLN9__gnu_cxx12_Lock_policyE2EEC2Ev, symObjAddr: 0x1E1C, symBinAddr: 0x1000025AC, symSize: 0x2C }
  - { offset: 0xC271, size: 0x8, addend: 0x0, symName: __ZNSt7__cxx1112basic_stringIcSt11char_traitsIcESaIcEE12_M_constructILb1EEEvPKcm, symObjAddr: 0x1D7C, symBinAddr: 0x10000250C, symSize: 0xA0 }
  - { offset: 0xC300, size: 0x8, addend: 0x0, symName: __ZNKSt7__cxx1112basic_stringIcSt11char_traitsIcESaIcEE16_M_get_allocatorEv, symObjAddr: 0x1D68, symBinAddr: 0x1000024F8, symSize: 0x14 }
  - { offset: 0xC365, size: 0x8, addend: 0x0, symName: __ZNSt12_Vector_baseISt4pairIP12DebugAADNodedESaIS3_EE19_M_get_Tp_allocatorEv, symObjAddr: 0x1D54, symBinAddr: 0x1000024E4, symSize: 0x14 }
  - { offset: 0xC38F, size: 0x8, addend: 0x0, symName: __ZNSt12_Vector_baseISt4pairIP12DebugAADNodedESaIS3_EE13_M_deallocateEPS3_m, symObjAddr: 0x1CFC, symBinAddr: 0x10000248C, symSize: 0x58 }
  - { offset: 0xC42B, size: 0x8, addend: 0x0, symName: __ZNSt15__new_allocatorISt4pairIP12DebugAADNodedEED2Ev, symObjAddr: 0x1CE8, symBinAddr: 0x100002478, symSize: 0x14 }
  - { offset: 0xC46B, size: 0x8, addend: 0x0, symName: __ZNSt12_Vector_baseISt4pairIP12DebugAADNodedESaIS3_EE17_Vector_impl_dataC2Ev, symObjAddr: 0x1CBC, symBinAddr: 0x10000244C, symSize: 0x2C }
  - { offset: 0xC4CB, size: 0x8, addend: 0x0, symName: __ZNSt16_Sp_counted_baseILN9__gnu_cxx12_Lock_policyE2EE19_M_release_last_useEv, symObjAddr: 0x1BCC, symBinAddr: 0x10000235C, symSize: 0xF0 }
  - { offset: 0xC5CF, size: 0x8, addend: 0x0, symName: __ZNSt16_Sp_counted_baseILN9__gnu_cxx12_Lock_policyE2EED2Ev, symObjAddr: 0x1BA4, symBinAddr: 0x100002334, symSize: 0x28 }
  - { offset: 0xC619, size: 0x8, addend: 0x0, symName: __ZNSt7__cxx1112basic_stringIcSt11char_traitsIcESaIcEE12_M_constructIPKcEEvT_S8_St20forward_iterator_tag, symObjAddr: 0x1AC4, symBinAddr: 0x100002254, symSize: 0xE0 }
  - { offset: 0xC717, size: 0x8, addend: 0x0, symName: __ZZNSt7__cxx1112basic_stringIcSt11char_traitsIcESaIcEE12_M_constructIPKcEEvT_S8_St20forward_iterator_tagEN6_GuardC1EPS4_, symObjAddr: 0x1A6C, symBinAddr: 0x1000021FC, symSize: 0x24 }
  - { offset: 0xC74A, size: 0x8, addend: 0x0, symName: __ZZNSt7__cxx1112basic_stringIcSt11char_traitsIcESaIcEE12_M_constructIPKcEEvT_S8_St20forward_iterator_tagEN6_GuardD1Ev, symObjAddr: 0x1A90, symBinAddr: 0x100002220, symSize: 0x34 }
  - { offset: 0xC85A, size: 0x8, addend: 0x0, symName: __ZNSt7__cxx1112basic_stringIcSt11char_traitsIcESaIcEE12_Alloc_hiderC1EPcRKS3_, symObjAddr: 0x1A1C, symBinAddr: 0x1000021AC, symSize: 0x50 }
  - { offset: 0xC904, size: 0x8, addend: 0x0, symName: __ZNSt15__new_allocatorIcED2Ev, symObjAddr: 0x1A08, symBinAddr: 0x100002198, symSize: 0x14 }
  - { offset: 0xC940, size: 0x8, addend: 0x0, symName: __ZNKSt7__cxx1112basic_stringIcSt11char_traitsIcESaIcEE4sizeEv, symObjAddr: 0x19B8, symBinAddr: 0x100002148, symSize: 0x50 }
  - { offset: 0xC9A7, size: 0x8, addend: 0x0, symName: __ZNSt7__cxx1112basic_stringIcSt11char_traitsIcESaIcEE9_M_lengthEm, symObjAddr: 0x1994, symBinAddr: 0x100002124, symSize: 0x24 }
  - { offset: 0xC9E1, size: 0x8, addend: 0x0, symName: __ZNSt7__cxx1112basic_stringIcSt11char_traitsIcESaIcEE11_M_capacityEm, symObjAddr: 0x1970, symBinAddr: 0x100002100, symSize: 0x24 }
  - { offset: 0xCA1C, size: 0x8, addend: 0x0, symName: __ZNSt7__cxx1112basic_stringIcSt11char_traitsIcESaIcEE7_M_dataEPc, symObjAddr: 0x194C, symBinAddr: 0x1000020DC, symSize: 0x24 }
  - { offset: 0xCA56, size: 0x8, addend: 0x0, symName: __ZNKSt7__cxx1112basic_stringIcSt11char_traitsIcESaIcEE6lengthEv, symObjAddr: 0x1930, symBinAddr: 0x1000020C0, symSize: 0x1C }
  - { offset: 0xCA80, size: 0x8, addend: 0x0, symName: __ZNKSt7__cxx1112basic_stringIcSt11char_traitsIcESaIcEE11_M_is_localEv, symObjAddr: 0x18C8, symBinAddr: 0x100002058, symSize: 0x68 }
  - { offset: 0xCACE, size: 0x8, addend: 0x0, symName: __ZNSt7__cxx1112basic_stringIcSt11char_traitsIcESaIcEE16_M_get_allocatorEv, symObjAddr: 0x18B4, symBinAddr: 0x100002044, symSize: 0x14 }
  - { offset: 0xCAFC, size: 0x8, addend: 0x0, symName: __ZNSt7__cxx1112basic_stringIcSt11char_traitsIcESaIcEE7reserveEm, symObjAddr: 0x180C, symBinAddr: 0x100001F9C, symSize: 0xA8 }
  - { offset: 0xCB59, size: 0x8, addend: 0x0, symName: __ZNSt7__cxx1112basic_stringIcSt11char_traitsIcESaIcEE10_M_disposeEv, symObjAddr: 0x17C4, symBinAddr: 0x100001F54, symSize: 0x48 }
  - { offset: 0xCB83, size: 0x8, addend: 0x0, symName: __ZNSt7__cxx1112basic_stringIcSt11char_traitsIcESaIcEE13_M_set_lengthEm, symObjAddr: 0x177C, symBinAddr: 0x100001F0C, symSize: 0x48 }
  - { offset: 0xCC08, size: 0x8, addend: 0x0, symName: __ZNSt7__cxx1112basic_stringIcSt11char_traitsIcESaIcEE12_Alloc_hiderC1EPcOS3_, symObjAddr: 0x1724, symBinAddr: 0x100001EB4, symSize: 0x58 }
  - { offset: 0xCCBC, size: 0x8, addend: 0x0, symName: __ZNSt7__cxx1112basic_stringIcSt11char_traitsIcESaIcEE13_M_local_dataEv, symObjAddr: 0x1704, symBinAddr: 0x100001E94, symSize: 0x20 }
  - { offset: 0xCCE6, size: 0x8, addend: 0x0, symName: __ZNKSt7__cxx1112basic_stringIcSt11char_traitsIcESaIcEE7_M_dataEv, symObjAddr: 0x16EC, symBinAddr: 0x100001E7C, symSize: 0x18 }
  - { offset: 0xCD0C, size: 0x8, addend: 0x0, symName: __ZN9__gnu_cxx11char_traitsIcE2eqERKcS3_, symObjAddr: 0x16BC, symBinAddr: 0x100001E4C, symSize: 0x30 }
  - { offset: 0xCD90, size: 0x8, addend: 0x0, symName: __ZNSt7__cxx1112basic_stringIcSt11char_traitsIcESaIcEEC1IS3_EEPKcRKS3_, symObjAddr: 0x1620, symBinAddr: 0x100001DB0, symSize: 0x9C }
  - { offset: 0xCDF5, size: 0x8, addend: 0x0, symName: __ZNSt6vectorISt4pairIP12DebugAADNodedESaIS3_EEaSESt16initializer_listIS3_E, symObjAddr: 0x15D4, symBinAddr: 0x100001D64, symSize: 0x4C }
  - { offset: 0xCE78, size: 0x8, addend: 0x0, symName: __ZNSt4pairIP12DebugAADNodedEC1IS1_RdLb1EEEOT_OT0_, symObjAddr: 0x1588, symBinAddr: 0x100001D18, symSize: 0x4C }
  - { offset: 0xCF0A, size: 0x8, addend: 0x0, symName: __ZNKSt12__shared_ptrI12DebugAADNodeLN9__gnu_cxx12_Lock_policyE2EE3getEv, symObjAddr: 0x1570, symBinAddr: 0x100001D00, symSize: 0x18 }
  - { offset: 0xCF30, size: 0x8, addend: 0x0, symName: __ZStplIcSt11char_traitsIcESaIcEENSt7__cxx1112basic_stringIT_T0_T1_EEOS8_RKS8_, symObjAddr: 0x1528, symBinAddr: 0x100001CB8, symSize: 0x48 }
  - { offset: 0xCFAA, size: 0x8, addend: 0x0, symName: __ZStplIcSt11char_traitsIcESaIcEENSt7__cxx1112basic_stringIT_T0_T1_EEOS8_PKS5_, symObjAddr: 0x14E0, symBinAddr: 0x100001C70, symSize: 0x48 }
  - { offset: 0xD024, size: 0x8, addend: 0x0, symName: __ZStplIcSt11char_traitsIcESaIcEENSt7__cxx1112basic_stringIT_T0_T1_EEPKS5_RKS8_, symObjAddr: 0x1430, symBinAddr: 0x100001BC0, symSize: 0xB0 }
  - { offset: 0xD0C0, size: 0x8, addend: 0x0, symName: __ZNKSt19__shared_ptr_accessI12DebugAADNodeLN9__gnu_cxx12_Lock_policyE2ELb0ELb0EEptEv, symObjAddr: 0x1414, symBinAddr: 0x100001BA4, symSize: 0x1C }
  - { offset: 0xD0EA, size: 0x8, addend: 0x0, symName: __ZNSt10shared_ptrI12DebugAADNodeEaSEOS1_, symObjAddr: 0x13E4, symBinAddr: 0x100001B74, symSize: 0x30 }
  - { offset: 0xD145, size: 0x8, addend: 0x0, symName: __ZSt11make_sharedI12DebugAADNodeJRdRKNSt7__cxx1112basic_stringIcSt11char_traitsIcESaIcEEEEESt10shared_ptrINSt9enable_ifIXntsrSt8is_arrayIT_E5valueESD_E4typeEEDpOT0_, symObjAddr: 0x1388, symBinAddr: 0x100001B18, symSize: 0x5C }
  - { offset: 0xD218, size: 0x8, addend: 0x0, symName: __ZNSt10shared_ptrI12DebugAADNodeEC1Ev, symObjAddr: 0x1368, symBinAddr: 0x100001AF8, symSize: 0x20 }
  - { offset: 0xD23E, size: 0x8, addend: 0x0, symName: __ZNKSt6vectorISt4pairIP12DebugAADNodedESaIS3_EE4sizeEv, symObjAddr: 0x1328, symBinAddr: 0x100001AB8, symSize: 0x40 }
  - { offset: 0xD28F, size: 0x8, addend: 0x0, symName: __ZNSt6vectorISt4pairIP12DebugAADNodedESaIS3_EE3endEv, symObjAddr: 0x12F8, symBinAddr: 0x100001A88, symSize: 0x30 }
  - { offset: 0xD2E3, size: 0x8, addend: 0x0, symName: __ZNSt6vectorISt4pairIP12DebugAADNodedESaIS3_EE5beginEv, symObjAddr: 0x12CC, symBinAddr: 0x100001A5C, symSize: 0x2C }
  - { offset: 0xD35F, size: 0x8, addend: 0x0, symName: __ZNSt7__cxx1112basic_stringIcSt11char_traitsIcESaIcEEC1ERKS4_, symObjAddr: 0x11FC, symBinAddr: 0x10000198C, symSize: 0xD0 }
  - { offset: 0xD46B, size: 0x8, addend: 0x0, symName: __ZNSt6vectorISt4pairIP12DebugAADNodedESaIS3_EED1Ev, symObjAddr: 0x11A0, symBinAddr: 0x100001930, symSize: 0x5C }
  - { offset: 0xD4E1, size: 0x8, addend: 0x0, symName: __ZNSt12_Vector_baseISt4pairIP12DebugAADNodedESaIS3_EED2Ev, symObjAddr: 0x1150, symBinAddr: 0x1000018E0, symSize: 0x50 }
  - { offset: 0xD537, size: 0x8, addend: 0x0, symName: __ZNSt12_Vector_baseISt4pairIP12DebugAADNodedESaIS3_EE12_Vector_implC1Ev, symObjAddr: 0x1118, symBinAddr: 0x1000018A8, symSize: 0x38 }
  - { offset: 0xD5BD, size: 0x8, addend: 0x0, symName: __ZNSt14__shared_countILN9__gnu_cxx12_Lock_policyE2EED1Ev, symObjAddr: 0x10E4, symBinAddr: 0x100001874, symSize: 0x34 }
  - { offset: 0xD5E3, size: 0x8, addend: 0x0, symName: __ZNSt16_Sp_counted_baseILN9__gnu_cxx12_Lock_policyE2EE24_M_release_last_use_coldEv, symObjAddr: 0x10C4, symBinAddr: 0x100001854, symSize: 0x20 }
  - { offset: 0xD60D, size: 0x8, addend: 0x0, symName: __ZNSt16_Sp_counted_baseILN9__gnu_cxx12_Lock_policyE2EE10_M_destroyEv, symObjAddr: 0x1090, symBinAddr: 0x100001820, symSize: 0x34 }
  - { offset: 0xD68B, size: 0x8, addend: 0x0, symName: __ZNSt7__cxx1112basic_stringIcSt11char_traitsIcESaIcEEC1EOS4_, symObjAddr: 0xF84, symBinAddr: 0x100001714, symSize: 0x10C }
  - { offset: 0xD740, size: 0x8, addend: 0x0, symName: __ZNSt7__cxx1112basic_stringIcSt11char_traitsIcESaIcEED1Ev, symObjAddr: 0xF5C, symBinAddr: 0x1000016EC, symSize: 0x28 }
  - { offset: 0xD783, size: 0x8, addend: 0x0, symName: __ZNSt7__cxx1112basic_stringIcSt11char_traitsIcESaIcEE12_Alloc_hiderD1Ev, symObjAddr: 0xF30, symBinAddr: 0x1000016C0, symSize: 0x2C }
  - { offset: 0xD7CC, size: 0x8, addend: 0x0, symName: __ZNKSt7__cxx1112basic_stringIcSt11char_traitsIcESaIcEE5c_strEv, symObjAddr: 0xF14, symBinAddr: 0x1000016A4, symSize: 0x1C }
  - { offset: 0xD7F2, size: 0x8, addend: 0x0, symName: __ZN9__gnu_cxx11char_traitsIcE6lengthEPKc, symObjAddr: 0xEBC, symBinAddr: 0x10000164C, symSize: 0x58 }
  - { offset: 0xD832, size: 0x8, addend: 0x0, symName: _main, symObjAddr: 0xBC0, symBinAddr: 0x100001350, symSize: 0x2FC }
  - { offset: 0xD988, size: 0x8, addend: 0x0, symName: __ZNK14DebugAADNumbermlERKS_, symObjAddr: 0x9F4, symBinAddr: 0x100001184, symSize: 0x1CC }
  - { offset: 0xD9F1, size: 0x8, addend: 0x0, symName: __ZN14DebugAADNumberD1Ev, symObjAddr: 0x9D4, symBinAddr: 0x100001164, symSize: 0x20 }
  - { offset: 0xDA17, size: 0x8, addend: 0x0, symName: __ZN14DebugAADNumber9propagateEv, symObjAddr: 0x9B0, symBinAddr: 0x100001140, symSize: 0x24 }
  - { offset: 0xDA41, size: 0x8, addend: 0x0, symName: __ZN14DebugAADNumber6setAdjEd, symObjAddr: 0x97C, symBinAddr: 0x10000110C, symSize: 0x34 }
  - { offset: 0xDA7B, size: 0x8, addend: 0x0, symName: __ZNK14DebugAADNumber3adjEv, symObjAddr: 0x958, symBinAddr: 0x1000010E8, symSize: 0x24 }
  - { offset: 0xDAA5, size: 0x8, addend: 0x0, symName: __ZNK14DebugAADNumber3valEv, symObjAddr: 0x934, symBinAddr: 0x1000010C4, symSize: 0x24 }
  - { offset: 0xDB03, size: 0x8, addend: 0x0, symName: __ZN14DebugAADNumberC1EdRKNSt7__cxx1112basic_stringIcSt11char_traitsIcESaIcEEE, symObjAddr: 0x8C8, symBinAddr: 0x100001058, symSize: 0x6C }
  - { offset: 0xDB58, size: 0x8, addend: 0x0, symName: __ZNSt10shared_ptrI12DebugAADNodeED1Ev, symObjAddr: 0x8A8, symBinAddr: 0x100001038, symSize: 0x20 }
  - { offset: 0xDB98, size: 0x8, addend: 0x0, symName: __ZNSt12__shared_ptrI12DebugAADNodeLN9__gnu_cxx12_Lock_policyE2EED1Ev, symObjAddr: 0x884, symBinAddr: 0x100001014, symSize: 0x24 }
  - { offset: 0xDBC2, size: 0x8, addend: 0x0, symName: __ZNSt12__shared_ptrI12DebugAADNodeLN9__gnu_cxx12_Lock_policyE2EED2Ev, symObjAddr: 0x860, symBinAddr: 0x100000FF0, symSize: 0x24 }
  - { offset: 0xDBE8, size: 0x8, addend: 0x0, symName: __ZN12DebugAADNode18propagate_internalEv, symObjAddr: 0x5D4, symBinAddr: 0x100000D64, symSize: 0x28C }
  - { offset: 0xDD2E, size: 0x8, addend: 0x0, symName: __ZN12DebugAADNode23reset_visited_recursiveEv, symObjAddr: 0x510, symBinAddr: 0x100000CA0, symSize: 0xC4 }
  - { offset: 0xDEB8, size: 0x8, addend: 0x0, symName: __ZN12DebugAADNode9propagateEv, symObjAddr: 0x470, symBinAddr: 0x100000C00, symSize: 0xA0 }
  - { offset: 0xDF16, size: 0x8, addend: 0x0, symName: __ZN12DebugAADNodeC1EdRKNSt7__cxx1112basic_stringIcSt11char_traitsIcESaIcEEE, symObjAddr: 0x3F8, symBinAddr: 0x100000B88, symSize: 0x78 }
  - { offset: 0xDF68, size: 0x8, addend: 0x0, symName: __ZNSt6vectorISt4pairIP12DebugAADNodedESaIS3_EEC1Ev, symObjAddr: 0x3D8, symBinAddr: 0x100000B68, symSize: 0x20 }
  - { offset: 0xDFA8, size: 0x8, addend: 0x0, symName: __ZNSt12_Vector_baseISt4pairIP12DebugAADNodedESaIS3_EEC2Ev, symObjAddr: 0x3B8, symBinAddr: 0x100000B48, symSize: 0x20 }
  - { offset: 0xDFEB, size: 0x8, addend: 0x0, symName: __ZNSt12_Vector_baseISt4pairIP12DebugAADNodedESaIS3_EE12_Vector_implD1Ev, symObjAddr: 0x38C, symBinAddr: 0x100000B1C, symSize: 0x2C }
  - { offset: 0xE030, size: 0x8, addend: 0x0, symName: __ZNSt19_Sp_make_shared_tag5_S_tiEv, symObjAddr: 0x380, symBinAddr: 0x100000B10, symSize: 0xC }
  - { offset: 0xE056, size: 0x8, addend: 0x0, symName: __ZZNSt19_Sp_make_shared_tag5_S_tiEvE5__tag, symObjAddr: 0x3BB8, symBinAddr: 0x100004BF8, symSize: 0x0 }
  - { offset: 0xE07A, size: 0x8, addend: 0x0, symName: __ZNSt16_Sp_counted_baseILN9__gnu_cxx12_Lock_policyE2EE10_M_releaseEv, symObjAddr: 0x20C, symBinAddr: 0x10000099C, symSize: 0x174 }
  - { offset: 0xE1FA, size: 0x8, addend: 0x0, symName: __ZSt3minImERKT_S2_S2_, symObjAddr: 0x1D4, symBinAddr: 0x100000964, symSize: 0x38 }
  - { offset: 0xE2D5, size: 0x8, addend: 0x0, symName: __ZNSt11char_traitsIcE4copyEPcPKcm, symObjAddr: 0x180, symBinAddr: 0x100000910, symSize: 0x54 }
  - { offset: 0xE321, size: 0x8, addend: 0x0, symName: __ZNSt11char_traitsIcE6lengthEPKc, symObjAddr: 0x144, symBinAddr: 0x1000008D4, symSize: 0x3C }
  - { offset: 0xE365, size: 0x8, addend: 0x0, symName: __ZNSt11char_traitsIcE6assignERcRKc, symObjAddr: 0x11C, symBinAddr: 0x1000008AC, symSize: 0x28 }
  - { offset: 0xE3A7, size: 0x8, addend: 0x0, symName: __ZdlPvS_, symObjAddr: 0x104, symBinAddr: 0x100000894, symSize: 0x18 }
  - { offset: 0xE3DD, size: 0x8, addend: 0x0, symName: __ZnwmPv, symObjAddr: 0xEC, symBinAddr: 0x10000087C, symSize: 0x18 }
  - { offset: 0xE413, size: 0x8, addend: 0x0, symName: __ZNKSt9type_infoeqERKS_, symObjAddr: 0x3C, symBinAddr: 0x1000007CC, symSize: 0xB0 }
  - { offset: 0xE466, size: 0x8, addend: 0x0, symName: __ZNKSt9type_info4nameEv, symObjAddr: 0x0, symBinAddr: 0x100000790, symSize: 0x3C }
...
